target datalayout = "e-m:e-p270:32:32-p271:32:32-p272:64:64-i64:64-i128:128-f80:128-n8:16:32:64-S128"
target triple = "x86_64-unknown-linux-gnu"

%"class.fmt::v10::basic_string_view" = type { ptr, i64 }

; Function Attrs: mustprogress nounwind uwtable
define linkonce_odr hidden noundef ptr @_ZNK3fmt3v1017basic_string_viewIcE4dataEv(ptr noundef nonnull align 8 dereferenceable(16) %this) #6 comdat align 2 {
entry:
  %this.addr = alloca ptr, align 8
  store ptr %this, ptr %this.addr, align 8
  %this1 = load ptr, ptr %this.addr, align 8
  %data_ = getelementptr inbounds %"class.fmt::v10::basic_string_view", ptr %this1, i32 0, i32 0
  %0 = load ptr, ptr %data_, align 8
  ret ptr %0
}

; Function Attrs: mustprogress nounwind uwtable
define linkonce_odr hidden noundef i64 @_ZNK3fmt3v1017basic_string_viewIcE4sizeEv(ptr noundef nonnull align 8 dereferenceable(16) %this) #6 comdat align 2 {
entry:
  %this.addr = alloca ptr, align 8
  store ptr %this, ptr %this.addr, align 8
  %this1 = load ptr, ptr %this.addr, align 8
  %size_ = getelementptr inbounds %"class.fmt::v10::basic_string_view", ptr %this1, i32 0, i32 1
  %0 = load i64, ptr %size_, align 8
  ret i64 %0
}

; Function Attrs: mustprogress uwtable
define hidden void @_Z5writeRN3fmt3v104fileENS0_17basic_string_viewIcEE(ptr noundef nonnull align 4 dereferenceable(4) %f, ptr %s.coerce0, i64 %s.coerce1) #4 {
entry:
  %s = alloca %"class.fmt::v10::basic_string_view", align 8
  %f.addr = alloca ptr, align 8
  %num_chars_left = alloca i64, align 8
  %ptr = alloca ptr, align 8
  %count = alloca i64, align 8
  %0 = getelementptr inbounds { ptr, i64 }, ptr %s, i32 0, i32 0
  store ptr %s.coerce0, ptr %0, align 8
  %1 = getelementptr inbounds { ptr, i64 }, ptr %s, i32 0, i32 1
  store i64 %s.coerce1, ptr %1, align 8
  store ptr %f, ptr %f.addr, align 8
  %call = call noundef i64 @_ZNK3fmt3v1017basic_string_viewIcE4sizeEv(ptr noundef nonnull align 8 dereferenceable(16) %s) #3
  store i64 %call, ptr %num_chars_left, align 8
  %call1 = call noundef ptr @_ZNK3fmt3v1017basic_string_viewIcE4dataEv(ptr noundef nonnull align 8 dereferenceable(16) %s) #3
  store ptr %call1, ptr %ptr, align 8
  br label %do.body

do.body:                                          ; preds = %do.cond, %entry
  %2 = load ptr, ptr %f.addr, align 8
  %3 = load ptr, ptr %ptr, align 8
  %4 = load i64, ptr %num_chars_left, align 8
  %call2 = call noundef i64 @_ZN3fmt3v104file5writeEPKvm(ptr noundef nonnull align 4 dereferenceable(4) %2, ptr noundef %3, i64 noundef %4)
  store i64 %call2, ptr %count, align 8
  %5 = load i64, ptr %count, align 8
  %6 = load ptr, ptr %ptr, align 8
  %add.ptr = getelementptr inbounds i8, ptr %6, i64 %5
  store ptr %add.ptr, ptr %ptr, align 8
  %7 = load i64, ptr %count, align 8
  %8 = load i64, ptr %num_chars_left, align 8
  %sub = sub i64 %8, %7
  store i64 %sub, ptr %num_chars_left, align 8
  br label %do.cond

do.cond:                                          ; preds = %do.body
  %9 = load i64, ptr %num_chars_left, align 8
  %cmp = icmp ne i64 %9, 0
  br i1 %cmp, label %do.body, label %do.end, !llvm.loop !5

do.end:                                           ; preds = %do.cond
  ret void
}