; Function Attrs: mustprogress uwtable
define hidden void @_Z5writeRN3fmt3v104fileENS0_17basic_string_viewIcEE(ptr noundef nonnull align 4 dereferenceable(4) %f, ptr %s.coerce0, i64 %s.coerce1) local_unnamed_addr #6 {
entry:
  br label %do.body

do.body:                                          ; preds = %do.body, %entry
  %ptr.0 = phi ptr [ %s.coerce0, %entry ], [ %add.ptr, %do.body ]
  %num_chars_left.0 = phi i64 [ %s.coerce1, %entry ], [ %sub, %do.body ]
  %call2 = tail call noundef i64 @_ZN3fmt3v104file5writeEPKvm(ptr noundef nonnull align 4 dereferenceable(4) %f, ptr noundef %ptr.0, i64 noundef %num_chars_left.0)
  %add.ptr = getelementptr inbounds i8, ptr %ptr.0, i64 %call2
  %sub = sub i64 %num_chars_left.0, %call2
  %cmp.not = icmp eq i64 %sub, 0
  br i1 %cmp.not, label %do.end, label %do.body, !llvm.loop !5

do.end:                                           ; preds = %do.body
  ret void
}